target datalayout = "e-m:e-p270:32:32-p271:32:32-p272:64:64-i64:64-i128:128-f80:128-n8:16:32:64-S128"
target triple = "x86_64-pc-linux-gnu"

%"struct.vcg::GLMeshAttributesInfo::ATT_NAMES" = type { i32 }
%"class.std::allocator.181" = type { i8 }
%"struct.vcg::GLMeshAttributesInfo::Exception" = type { %"class.std::exception", %"class.std::__cxx11::basic_string" }
%"class.std::exception" = type { ptr }
%"class.std::__cxx11::basic_string" = type { %"struct.std::__cxx11::basic_string<char>::_Alloc_hider", i64, %union.anon.184 }
%"struct.std::__cxx11::basic_string<char>::_Alloc_hider" = type { ptr }
%union.anon.184 = type { i64, [8 x i8] }

@.str.11 = private unnamed_addr constant [20 x i8] c"Out of range value\0A\00", align 1
@_ZTIN3vcg20GLMeshAttributesInfo9ExceptionE = linkonce_odr constant { ptr, ptr, ptr } { ptr getelementptr inbounds (ptr, ptr @_ZTVN10__cxxabiv120__si_class_type_infoE, i64 2), ptr @_ZTSN3vcg20GLMeshAttributesInfo9ExceptionE, ptr @_ZTISt9exception }, comdat, align 8
@_ZTVSt9exception = external unnamed_addr constant { [5 x ptr] }, align 8
@.str.12 = private unnamed_addr constant [59 x i8] c"PRIMITIVE_MODALITY iterator: PR_ARITY passed as parameter!\00", align 1

; Function Attrs: mustprogress nounwind uwtable
define linkonce_odr void @_ZNSt9exceptionC2Ev(ptr noundef nonnull align 8 dereferenceable(8) %0) unnamed_addr #4 comdat align 2 {
  %2 = alloca ptr, align 8
  store ptr %0, ptr %2, align 8
  %3 = load ptr, ptr %2, align 8
  store ptr getelementptr inbounds ({ [5 x ptr] }, ptr @_ZTVSt9exception, i32 0, i32 0, i32 2), ptr %3, align 8
  ret void
}

; Function Attrs: mustprogress uwtable
define linkonce_odr void @_ZN3vcg20GLMeshAttributesInfo9ExceptionC2EPKc(ptr noundef nonnull align 8 dereferenceable(40) %0, ptr noundef %1) unnamed_addr #5 comdat align 2 personality ptr @__gxx_personality_v0 {
  %3 = alloca ptr, align 8
  %4 = alloca ptr, align 8
  %5 = alloca %"class.std::allocator.181", align 1
  %6 = alloca ptr, align 8
  %7 = alloca i32, align 4
  store ptr %0, ptr %3, align 8
  store ptr %1, ptr %4, align 8
  %8 = load ptr, ptr %3, align 8
  call void @_ZNSt9exceptionC2Ev(ptr noundef nonnull align 8 dereferenceable(8) %8) #3
  store ptr getelementptr inbounds ({ [5 x ptr] }, ptr @_ZTVN3vcg20GLMeshAttributesInfo9ExceptionE, i32 0, i32 0, i32 2), ptr %8, align 8
  %9 = getelementptr inbounds %"struct.vcg::GLMeshAttributesInfo::Exception", ptr %8, i32 0, i32 1
  %10 = load ptr, ptr %4, align 8
  call void @_ZNSaIcEC1Ev(ptr noundef nonnull align 1 dereferenceable(1) %5) #3
  invoke void @_ZNSt7__cxx1112basic_stringIcSt11char_traitsIcESaIcEEC1EPKcRKS3_(ptr noundef nonnull align 8 dereferenceable(32) %9, ptr noundef %10, ptr noundef nonnull align 1 dereferenceable(1) %5)
          to label %11 unwind label %12

11:                                               ; preds = %2
  call void @_ZNSaIcED1Ev(ptr noundef nonnull align 1 dereferenceable(1) %5) #3
  ret void

12:                                               ; preds = %2
  %13 = landingpad { ptr, i32 }
          cleanup
  %14 = extractvalue { ptr, i32 } %13, 0
  store ptr %14, ptr %6, align 8
  %15 = extractvalue { ptr, i32 } %13, 1
  store i32 %15, ptr %7, align 4
  call void @_ZNSaIcED1Ev(ptr noundef nonnull align 1 dereferenceable(1) %5) #3
  call void @_ZNSt9exceptionD2Ev(ptr noundef nonnull align 8 dereferenceable(8) %8) #3
  br label %16

16:                                               ; preds = %12
  %17 = load ptr, ptr %6, align 8
  %18 = load i32, ptr %7, align 4
  %19 = insertvalue { ptr, i32 } poison, ptr %17, 0
  %20 = insertvalue { ptr, i32 } %19, i32 %18, 1
  resume { ptr, i32 } %20
}

; Function Attrs: mustprogress nounwind uwtable
define linkonce_odr noundef i32 @_ZN3vcg20GLMeshAttributesInfo9ATT_NAMES9enumArityEv() #4 comdat align 2 {
  ret i32 7
}

; Function Attrs: mustprogress uwtable
define linkonce_odr noundef i32 @_ZN3vcg20GLMeshAttributesInfo4nextENS0_18PRIMITIVE_MODALITYE(i32 noundef %0) #5 comdat align 2 personality ptr @__gxx_personality_v0 {
  %2 = alloca i32, align 4
  %3 = alloca i32, align 4
  %4 = alloca ptr, align 8
  %5 = alloca i32, align 4
  store i32 %0, ptr %2, align 4
  %6 = load i32, ptr %2, align 4
  store i32 %6, ptr %3, align 4
  %7 = load i32, ptr %3, align 4
  %8 = icmp eq i32 %7, 4
  br i1 %8, label %9, label %16

9:                                                ; preds = %1
  %10 = call ptr @__cxa_allocate_exception(i64 40) #3
  invoke void @_ZN3vcg20GLMeshAttributesInfo9ExceptionC2EPKc(ptr noundef nonnull align 8 dereferenceable(40) %10, ptr noundef @.str.12)
          to label %11 unwind label %12

11:                                               ; preds = %9
  call void @__cxa_throw(ptr %10, ptr @_ZTIN3vcg20GLMeshAttributesInfo9ExceptionE, ptr @_ZN3vcg20GLMeshAttributesInfo9ExceptionD2Ev) #14
  unreachable

12:                                               ; preds = %9
  %13 = landingpad { ptr, i32 }
          cleanup
  %14 = extractvalue { ptr, i32 } %13, 0
  store ptr %14, ptr %4, align 8
  %15 = extractvalue { ptr, i32 } %13, 1
  store i32 %15, ptr %5, align 4
  call void @__cxa_free_exception(ptr %10) #3
  br label %20

16:                                               ; preds = %1
  %17 = load i32, ptr %3, align 4
  %18 = add nsw i32 %17, 1
  store i32 %18, ptr %3, align 4
  %19 = load i32, ptr %3, align 4
  ret i32 %19

20:                                               ; preds = %12
  %21 = load ptr, ptr %4, align 8
  %22 = load i32, ptr %5, align 4
  %23 = insertvalue { ptr, i32 } poison, ptr %21, 0
  %24 = insertvalue { ptr, i32 } %23, i32 %22, 1
  resume { ptr, i32 } %24
}

; Function Attrs: mustprogress uwtable
define linkonce_odr void @_ZN3vcg20GLMeshAttributesInfo9ATT_NAMESC2Ej(ptr noundef nonnull align 4 dereferenceable(4) %0, i32 noundef %1) unnamed_addr #5 comdat align 2 personality ptr @__gxx_personality_v0 {
  %3 = alloca ptr, align 8
  %4 = alloca i32, align 4
  %5 = alloca ptr, align 8
  %6 = alloca i32, align 4
  store ptr %0, ptr %3, align 8
  store i32 %1, ptr %4, align 4
  %7 = load ptr, ptr %3, align 8
  %8 = load i32, ptr %4, align 4
  %9 = call noundef i32 @_ZN3vcg20GLMeshAttributesInfo9ATT_NAMES9enumArityEv()
  %10 = icmp uge i32 %8, %9
  br i1 %10, label %11, label %18

11:                                               ; preds = %2
  %12 = call ptr @__cxa_allocate_exception(i64 40) #3
  invoke void @_ZN3vcg20GLMeshAttributesInfo9ExceptionC2EPKc(ptr noundef nonnull align 8 dereferenceable(40) %12, ptr noundef @.str.11)
          to label %13 unwind label %14

13:                                               ; preds = %11
  call void @__cxa_throw(ptr %12, ptr @_ZTIN3vcg20GLMeshAttributesInfo9ExceptionE, ptr @_ZN3vcg20GLMeshAttributesInfo9ExceptionD2Ev) #14
  unreachable

14:                                               ; preds = %11
  %15 = landingpad { ptr, i32 }
          cleanup
  %16 = extractvalue { ptr, i32 } %15, 0
  store ptr %16, ptr %5, align 8
  %17 = extractvalue { ptr, i32 } %15, 1
  store i32 %17, ptr %6, align 4
  call void @__cxa_free_exception(ptr %12) #3
  br label %22

18:                                               ; preds = %2
  %19 = load i32, ptr %4, align 4
  %20 = getelementptr inbounds %"struct.vcg::GLMeshAttributesInfo::ATT_NAMES", ptr %7, i32 0, i32 0
  store i32 %19, ptr %20, align 4
  br label %21

21:                                               ; preds = %18
  ret void

22:                                               ; preds = %14
  %23 = load ptr, ptr %5, align 8
  %24 = load i32, ptr %6, align 4
  %25 = insertvalue { ptr, i32 } poison, ptr %23, 0
  %26 = insertvalue { ptr, i32 } %25, i32 %24, 1
  resume { ptr, i32 } %26
}

; Function Attrs: mustprogress uwtable
define void @_ZN19QualityMapperPlugin22suggestedRenderingDataER9MeshModelR15MLRenderingData(ptr noundef nonnull align 8 dereferenceable(49) %0, ptr noundef nonnull align 8 dereferenceable(1288) %1, ptr noundef nonnull align 8 dereferenceable(40) %2) unnamed_addr #5 align 2 {
  %4 = alloca ptr, align 8
  %5 = alloca ptr, align 8
  %6 = alloca ptr, align 8
  %7 = alloca i32, align 4
  %8 = alloca %"struct.vcg::GLMeshAttributesInfo::ATT_NAMES", align 4
  store ptr %0, ptr %4, align 8
  store ptr %1, ptr %5, align 8
  store ptr %2, ptr %6, align 8
  %9 = load ptr, ptr %5, align 8
  %10 = call noundef zeroext i1 @_ZNK9MeshModel11hasDataMaskEi(ptr noundef nonnull align 8 dereferenceable(1288) %9, i32 noundef 16)
  br i1 %10, label %11, label %26

11:                                               ; preds = %3
  store i32 0, ptr %7, align 4
  br label %12

12:                                               ; preds = %21, %11
  %13 = load i32, ptr %7, align 4
  %14 = icmp slt i32 %13, 4
  br i1 %14, label %15, label %24

15:                                               ; preds = %12
  %16 = load ptr, ptr %6, align 8
  %17 = load i32, ptr %7, align 4
  call void @_ZN3vcg20GLMeshAttributesInfo9ATT_NAMESC2Ej(ptr noundef nonnull align 4 dereferenceable(4) %8, i32 noundef 3)
  %18 = getelementptr inbounds %"struct.vcg::GLMeshAttributesInfo::ATT_NAMES", ptr %8, i32 0, i32 0
  %19 = load i32, ptr %18, align 4
  %20 = call noundef zeroext i1 @_ZN15MLRenderingData3setEN3vcg20GLMeshAttributesInfo18PRIMITIVE_MODALITYENS1_9ATT_NAMESEb(ptr noundef nonnull align 8 dereferenceable(40) %16, i32 noundef %17, i32 %19, i1 noundef zeroext true)
  br label %21

21:                                               ; preds = %15
  %22 = load i32, ptr %7, align 4
  %23 = call noundef i32 @_ZN3vcg20GLMeshAttributesInfo4nextENS0_18PRIMITIVE_MODALITYE(i32 noundef %22)
  store i32 %23, ptr %7, align 4
  br label %12, !llvm.loop !11

24:                                               ; preds = %12
  %25 = load ptr, ptr %5, align 8
  call void @_ZN9MeshModel14updateDataMaskEi(ptr noundef nonnull align 8 dereferenceable(1288) %25, i32 noundef 8)
  br label %26

26:                                               ; preds = %24, %3
  ret void
}