; Function Attrs: mustprogress uwtable
define void @_ZN19QualityMapperPlugin22suggestedRenderingDataER9MeshModelR15MLRenderingData(ptr nocapture noundef nonnull readnone align 8 dereferenceable(49) %0, ptr noundef nonnull align 8 dereferenceable(1288) %1, ptr noundef nonnull align 8 dereferenceable(40) %2) unnamed_addr #9 align 2 personality ptr @__gxx_personality_v0 {
  %4 = tail call noundef zeroext i1 @_ZNK9MeshModel11hasDataMaskEi(ptr noundef nonnull align 8 dereferenceable(1288) %1, i32 noundef 16)
  br i1 %4, label %_ZN3vcg20GLMeshAttributesInfo4nextENS0_18PRIMITIVE_MODALITYE.exit, label %8

_ZN3vcg20GLMeshAttributesInfo4nextENS0_18PRIMITIVE_MODALITYE.exit: ; preds = %3, %_ZN3vcg20GLMeshAttributesInfo4nextENS0_18PRIMITIVE_MODALITYE.exit
  %.05 = phi i32 [ %6, %_ZN3vcg20GLMeshAttributesInfo4nextENS0_18PRIMITIVE_MODALITYE.exit ], [ 0, %3 ]
  %5 = tail call noundef zeroext i1 @_ZN15MLRenderingData3setEN3vcg20GLMeshAttributesInfo18PRIMITIVE_MODALITYENS1_9ATT_NAMESEb(ptr noundef nonnull align 8 dereferenceable(40) %2, i32 noundef %.05, i32 3, i1 noundef zeroext true)
  %6 = add nuw nsw i32 %.05, 1
  %exitcond.not = icmp eq i32 %6, 4
  br i1 %exitcond.not, label %7, label %_ZN3vcg20GLMeshAttributesInfo4nextENS0_18PRIMITIVE_MODALITYE.exit, !llvm.loop !10

7:                                                ; preds = %_ZN3vcg20GLMeshAttributesInfo4nextENS0_18PRIMITIVE_MODALITYE.exit
  tail call void @_ZN9MeshModel14updateDataMaskEi(ptr noundef nonnull align 8 dereferenceable(1288) %1, i32 noundef 8)
  br label %8

8:                                                ; preds = %7, %3
  ret void
}